; ModuleID = '35/666.c'
source_filename = "35/666.c"
target datalayout = "e-m:e-p270:32:32-p271:32:32-p272:64:64-i64:64-f80:128-n8:16:32:64-S128"
target triple = "x86_64-pc-linux-gnu"

@.str = private unnamed_addr constant [6 x i8] c"%d,%d\00", align 1
@.str.1 = private unnamed_addr constant [3 x i8] c"%d\00", align 1
@.str.2 = private unnamed_addr constant [6 x i8] c"%d+%d\00", align 1
@.str.3 = private unnamed_addr constant [3 x i8] c"No\00", align 1

; Function Attrs: noinline nounwind uwtable
define dso_local i32 @main() #0 {
  %1 = alloca i32, align 4
  %2 = alloca [8 x [8 x i32]], align 16
  %3 = alloca i32, align 4
  %4 = alloca i32, align 4
  %5 = alloca i32, align 4
  %6 = alloca i32, align 4
  %7 = alloca i32, align 4
  %8 = alloca i32, align 4
  %9 = alloca i32, align 4
  %10 = alloca i32, align 4
  %11 = alloca i32, align 4
  %12 = alloca i32, align 4
  store i32 0, i32* %1, align 4
  store i32 0, i32* %8, align 4
  store i32 0, i32* %9, align 4
  store i32 0, i32* %10, align 4
  %13 = call i32 (i8*, ...) @__isoc99_scanf(i8* getelementptr inbounds ([6 x i8], [6 x i8]* @.str, i64 0, i64 0), i32* %3, i32* %4)
  store i32 0, i32* %5, align 4
  br label %14

14:                                               ; preds = %35, %0
  %15 = load i32, i32* %5, align 4
  %16 = load i32, i32* %3, align 4
  %17 = icmp slt i32 %15, %16
  br i1 %17, label %18, label %38

18:                                               ; preds = %14
  store i32 0, i32* %6, align 4
  br label %19

19:                                               ; preds = %31, %18
  %20 = load i32, i32* %6, align 4
  %21 = load i32, i32* %4, align 4
  %22 = icmp slt i32 %20, %21
  br i1 %22, label %23, label %34

23:                                               ; preds = %19
  %24 = load i32, i32* %5, align 4
  %25 = sext i32 %24 to i64
  %26 = getelementptr inbounds [8 x [8 x i32]], [8 x [8 x i32]]* %2, i64 0, i64 %25
  %27 = load i32, i32* %6, align 4
  %28 = sext i32 %27 to i64
  %29 = getelementptr inbounds [8 x i32], [8 x i32]* %26, i64 0, i64 %28
  %30 = call i32 (i8*, ...) @__isoc99_scanf(i8* getelementptr inbounds ([3 x i8], [3 x i8]* @.str.1, i64 0, i64 0), i32* %29)
  br label %31

31:                                               ; preds = %23
  %32 = load i32, i32* %6, align 4
  %33 = add nsw i32 %32, 1
  store i32 %33, i32* %6, align 4
  br label %19

34:                                               ; preds = %19
  br label %35

35:                                               ; preds = %34
  %36 = load i32, i32* %5, align 4
  %37 = add nsw i32 %36, 1
  store i32 %37, i32* %5, align 4
  br label %14

38:                                               ; preds = %14
  store i32 0, i32* %5, align 4
  br label %39

39:                                               ; preds = %100, %38
  %40 = load i32, i32* %5, align 4
  %41 = load i32, i32* %3, align 4
  %42 = icmp slt i32 %40, %41
  br i1 %42, label %43, label %103

43:                                               ; preds = %39
  store i32 0, i32* %6, align 4
  br label %44

44:                                               ; preds = %69, %43
  %45 = load i32, i32* %6, align 4
  %46 = load i32, i32* %4, align 4
  %47 = icmp slt i32 %45, %46
  br i1 %47, label %48, label %72

48:                                               ; preds = %44
  %49 = load i32, i32* %8, align 4
  %50 = load i32, i32* %5, align 4
  %51 = sext i32 %50 to i64
  %52 = getelementptr inbounds [8 x [8 x i32]], [8 x [8 x i32]]* %2, i64 0, i64 %51
  %53 = load i32, i32* %6, align 4
  %54 = sext i32 %53 to i64
  %55 = getelementptr inbounds [8 x i32], [8 x i32]* %52, i64 0, i64 %54
  %56 = load i32, i32* %55, align 4
  %57 = icmp slt i32 %49, %56
  br i1 %57, label %58, label %68

58:                                               ; preds = %48
  %59 = load i32, i32* %5, align 4
  %60 = sext i32 %59 to i64
  %61 = getelementptr inbounds [8 x [8 x i32]], [8 x [8 x i32]]* %2, i64 0, i64 %60
  %62 = load i32, i32* %6, align 4
  %63 = sext i32 %62 to i64
  %64 = getelementptr inbounds [8 x i32], [8 x i32]* %61, i64 0, i64 %63
  %65 = load i32, i32* %64, align 4
  store i32 %65, i32* %8, align 4
  %66 = load i32, i32* %5, align 4
  store i32 %66, i32* %11, align 4
  %67 = load i32, i32* %6, align 4
  store i32 %67, i32* %12, align 4
  br label %68

68:                                               ; preds = %58, %48
  br label %69

69:                                               ; preds = %68
  %70 = load i32, i32* %6, align 4
  %71 = add nsw i32 %70, 1
  store i32 %71, i32* %6, align 4
  br label %44

72:                                               ; preds = %44
  store i32 0, i32* %7, align 4
  br label %73

73:                                               ; preds = %89, %72
  %74 = load i32, i32* %7, align 4
  %75 = load i32, i32* %3, align 4
  %76 = icmp slt i32 %74, %75
  br i1 %76, label %77, label %92

77:                                               ; preds = %73
  %78 = load i32, i32* %8, align 4
  %79 = load i32, i32* %7, align 4
  %80 = sext i32 %79 to i64
  %81 = getelementptr inbounds [8 x [8 x i32]], [8 x [8 x i32]]* %2, i64 0, i64 %80
  %82 = load i32, i32* %12, align 4
  %83 = sext i32 %82 to i64
  %84 = getelementptr inbounds [8 x i32], [8 x i32]* %81, i64 0, i64 %83
  %85 = load i32, i32* %84, align 4
  %86 = icmp sgt i32 %78, %85
  br i1 %86, label %87, label %88

87:                                               ; preds = %77
  store i32 1, i32* %9, align 4
  br label %88

88:                                               ; preds = %87, %77
  br label %89

89:                                               ; preds = %88
  %90 = load i32, i32* %7, align 4
  %91 = add nsw i32 %90, 1
  store i32 %91, i32* %7, align 4
  br label %73

92:                                               ; preds = %73
  %93 = load i32, i32* %9, align 4
  %94 = icmp eq i32 %93, 0
  br i1 %94, label %95, label %99

95:                                               ; preds = %92
  %96 = load i32, i32* %11, align 4
  %97 = load i32, i32* %12, align 4
  %98 = call i32 (i8*, ...) @printf(i8* getelementptr inbounds ([6 x i8], [6 x i8]* @.str.2, i64 0, i64 0), i32 %96, i32 %97)
  store i32 1, i32* %10, align 4
  br label %99

99:                                               ; preds = %95, %92
  br label %100

100:                                              ; preds = %99
  %101 = load i32, i32* %5, align 4
  %102 = add nsw i32 %101, 1
  store i32 %102, i32* %5, align 4
  br label %39

103:                                              ; preds = %39
  %104 = load i32, i32* %10, align 4
  %105 = icmp eq i32 %104, 0
  br i1 %105, label %106, label %108

106:                                              ; preds = %103
  %107 = call i32 (i8*, ...) @printf(i8* getelementptr inbounds ([3 x i8], [3 x i8]* @.str.3, i64 0, i64 0))
  br label %108

108:                                              ; preds = %106, %103
  ret i32 0
}

declare dso_local i32 @__isoc99_scanf(i8*, ...) #1

declare dso_local i32 @printf(i8*, ...) #1


!llvm.module.flags = !{!0}
!llvm.ident = !{!1}

!0 = !{i32 1, !"wchar_size", i32 4}
!1 = !{!"clang version 10.0.0-4ubuntu1 "}
